target datalayout = "e-m:e-p270:32:32-p271:32:32-p272:64:64-i64:64-i128:128-f80:128-n8:16:32:64-S128"
target triple = "x86_64-pc-linux-gnu"

%struct.llama_context = type { ptr, %struct.llama_cparams, %struct.llama_sbatch, %struct.llama_kv_cache, %struct.llama_adapter_cvec, %"class.std::unordered_map", %"class.std::vector.50", %"class.std::vector.55", ptr, ptr, ptr, i8, i64, i64, i64, i64, i64, i64, i32, i32, %"class.std::unique_ptr", i64, ptr, %"class.std::vector.5", i64, i32, i8, i64, ptr, %"class.std::map", i8, i32, %"class.std::vector.10", %"class.std::vector.65", %"class.std::vector.70", %"class.std::unique_ptr.75", ptr, ptr, ptr, ptr, ptr, ptr, ptr, ptr, ptr, ptr, ptr, ptr, ptr, ptr, ptr, ptr, ptr }
%struct.llama_cparams = type { i32, i32, i32, i32, i32, i32, float, float, i32, float, float, float, float, float, i8, i8, i8, i8, i8, i32, ptr, ptr }
%struct.llama_sbatch = type { i64, i64, i8, %"class.std::vector", %"class.std::vector", %"class.std::vector.0", ptr, %"class.std::vector.5", %"class.std::vector.10", %"class.std::vector.5", %"class.std::vector.5", %"class.std::vector.15", %"class.std::vector.20" }
%"class.std::vector" = type { %"struct.std::_Vector_base" }
%"struct.std::_Vector_base" = type { %"struct.std::_Vector_base<unsigned long, std::allocator<unsigned long>>::_Vector_impl" }
%"struct.std::_Vector_base<unsigned long, std::allocator<unsigned long>>::_Vector_impl" = type { %"struct.std::_Vector_base<unsigned long, std::allocator<unsigned long>>::_Vector_impl_data" }
%"struct.std::_Vector_base<unsigned long, std::allocator<unsigned long>>::_Vector_impl_data" = type { ptr, ptr, ptr }
%"class.std::vector.0" = type { %"struct.std::_Vector_base.1" }
%"struct.std::_Vector_base.1" = type { %"struct.std::_Vector_base<llama_sbatch_seq, std::allocator<llama_sbatch_seq>>::_Vector_impl" }
%"struct.std::_Vector_base<llama_sbatch_seq, std::allocator<llama_sbatch_seq>>::_Vector_impl" = type { %"struct.std::_Vector_base<llama_sbatch_seq, std::allocator<llama_sbatch_seq>>::_Vector_impl_data" }
%"struct.std::_Vector_base<llama_sbatch_seq, std::allocator<llama_sbatch_seq>>::_Vector_impl_data" = type { ptr, ptr, ptr }
%"class.std::vector.15" = type { %"struct.std::_Vector_base.16" }
%"struct.std::_Vector_base.16" = type { %"struct.std::_Vector_base<int *, std::allocator<int *>>::_Vector_impl" }
%"struct.std::_Vector_base<int *, std::allocator<int *>>::_Vector_impl" = type { %"struct.std::_Vector_base<int *, std::allocator<int *>>::_Vector_impl_data" }
%"struct.std::_Vector_base<int *, std::allocator<int *>>::_Vector_impl_data" = type { ptr, ptr, ptr }
%"class.std::vector.20" = type { %"struct.std::_Vector_base.21" }
%"struct.std::_Vector_base.21" = type { %"struct.std::_Vector_base<signed char, std::allocator<signed char>>::_Vector_impl" }
%"struct.std::_Vector_base<signed char, std::allocator<signed char>>::_Vector_impl" = type { %"struct.std::_Vector_base<signed char, std::allocator<signed char>>::_Vector_impl_data" }
%"struct.std::_Vector_base<signed char, std::allocator<signed char>>::_Vector_impl_data" = type { ptr, ptr, ptr }
%struct.llama_kv_cache = type { i8, i8, i8, i8, i8, i32, i32, i32, i32, i32, i32, %"class.std::vector.25", %"class.std::vector.30", %"class.std::vector.30", %"class.std::vector.35", %"class.std::vector.40" }
%"class.std::vector.25" = type { %"struct.std::_Vector_base.26" }
%"struct.std::_Vector_base.26" = type { %"struct.std::_Vector_base<llama_kv_cell, std::allocator<llama_kv_cell>>::_Vector_impl" }
%"struct.std::_Vector_base<llama_kv_cell, std::allocator<llama_kv_cell>>::_Vector_impl" = type { %"struct.std::_Vector_base<llama_kv_cell, std::allocator<llama_kv_cell>>::_Vector_impl_data" }
%"struct.std::_Vector_base<llama_kv_cell, std::allocator<llama_kv_cell>>::_Vector_impl_data" = type { ptr, ptr, ptr }
%"class.std::vector.30" = type { %"struct.std::_Vector_base.31" }
%"struct.std::_Vector_base.31" = type { %"struct.std::_Vector_base<ggml_tensor *, std::allocator<ggml_tensor *>>::_Vector_impl" }
%"struct.std::_Vector_base<ggml_tensor *, std::allocator<ggml_tensor *>>::_Vector_impl" = type { %"struct.std::_Vector_base<ggml_tensor *, std::allocator<ggml_tensor *>>::_Vector_impl_data" }
%"struct.std::_Vector_base<ggml_tensor *, std::allocator<ggml_tensor *>>::_Vector_impl_data" = type { ptr, ptr, ptr }
%"class.std::vector.35" = type { %"struct.std::_Vector_base.36" }
%"struct.std::_Vector_base.36" = type { %"struct.std::_Vector_base<std::unique_ptr<ggml_context, ggml_context_deleter>, std::allocator<std::unique_ptr<ggml_context, ggml_context_deleter>>>::_Vector_impl" }
%"struct.std::_Vector_base<std::unique_ptr<ggml_context, ggml_context_deleter>, std::allocator<std::unique_ptr<ggml_context, ggml_context_deleter>>>::_Vector_impl" = type { %"struct.std::_Vector_base<std::unique_ptr<ggml_context, ggml_context_deleter>, std::allocator<std::unique_ptr<ggml_context, ggml_context_deleter>>>::_Vector_impl_data" }
%"struct.std::_Vector_base<std::unique_ptr<ggml_context, ggml_context_deleter>, std::allocator<std::unique_ptr<ggml_context, ggml_context_deleter>>>::_Vector_impl_data" = type { ptr, ptr, ptr }
%"class.std::vector.40" = type { %"struct.std::_Vector_base.41" }
%"struct.std::_Vector_base.41" = type { %"struct.std::_Vector_base<std::unique_ptr<ggml_backend_buffer, ggml_backend_buffer_deleter>, std::allocator<std::unique_ptr<ggml_backend_buffer, ggml_backend_buffer_deleter>>>::_Vector_impl" }
%"struct.std::_Vector_base<std::unique_ptr<ggml_backend_buffer, ggml_backend_buffer_deleter>, std::allocator<std::unique_ptr<ggml_backend_buffer, ggml_backend_buffer_deleter>>>::_Vector_impl" = type { %"struct.std::_Vector_base<std::unique_ptr<ggml_backend_buffer, ggml_backend_buffer_deleter>, std::allocator<std::unique_ptr<ggml_backend_buffer, ggml_backend_buffer_deleter>>>::_Vector_impl_data" }
%"struct.std::_Vector_base<std::unique_ptr<ggml_backend_buffer, ggml_backend_buffer_deleter>, std::allocator<std::unique_ptr<ggml_backend_buffer, ggml_backend_buffer_deleter>>>::_Vector_impl_data" = type { ptr, ptr, ptr }
%struct.llama_adapter_cvec = type { i32, i32, %"class.std::vector.35", %"class.std::vector.40", %"class.std::vector.30" }
%"class.std::unordered_map" = type { %"class.std::_Hashtable" }
%"class.std::_Hashtable" = type { ptr, i64, %"struct.std::__detail::_Hash_node_base", i64, %"struct.std::__detail::_Prime_rehash_policy", ptr }
%"struct.std::__detail::_Hash_node_base" = type { ptr }
%"struct.std::__detail::_Prime_rehash_policy" = type { float, i64 }
%"class.std::vector.50" = type { %"struct.std::_Vector_base.51" }
%"struct.std::_Vector_base.51" = type { %"struct.std::_Vector_base<std::unique_ptr<ggml_backend, ggml_backend_deleter>, std::allocator<std::unique_ptr<ggml_backend, ggml_backend_deleter>>>::_Vector_impl" }
%"struct.std::_Vector_base<std::unique_ptr<ggml_backend, ggml_backend_deleter>, std::allocator<std::unique_ptr<ggml_backend, ggml_backend_deleter>>>::_Vector_impl" = type { %"struct.std::_Vector_base<std::unique_ptr<ggml_backend, ggml_backend_deleter>, std::allocator<std::unique_ptr<ggml_backend, ggml_backend_deleter>>>::_Vector_impl_data" }
%"struct.std::_Vector_base<std::unique_ptr<ggml_backend, ggml_backend_deleter>, std::allocator<std::unique_ptr<ggml_backend, ggml_backend_deleter>>>::_Vector_impl_data" = type { ptr, ptr, ptr }
%"class.std::vector.55" = type { %"struct.std::_Vector_base.56" }
%"struct.std::_Vector_base.56" = type { %"struct.std::_Vector_base<std::pair<ggml_backend *, void (*)(ggml_backend *, int)>, std::allocator<std::pair<ggml_backend *, void (*)(ggml_backend *, int)>>>::_Vector_impl" }
%"struct.std::_Vector_base<std::pair<ggml_backend *, void (*)(ggml_backend *, int)>, std::allocator<std::pair<ggml_backend *, void (*)(ggml_backend *, int)>>>::_Vector_impl" = type { %"struct.std::_Vector_base<std::pair<ggml_backend *, void (*)(ggml_backend *, int)>, std::allocator<std::pair<ggml_backend *, void (*)(ggml_backend *, int)>>>::_Vector_impl_data" }
%"struct.std::_Vector_base<std::pair<ggml_backend *, void (*)(ggml_backend *, int)>, std::allocator<std::pair<ggml_backend *, void (*)(ggml_backend *, int)>>>::_Vector_impl_data" = type { ptr, ptr, ptr }
%"class.std::unique_ptr" = type { %"struct.std::__uniq_ptr_data" }
%"struct.std::__uniq_ptr_data" = type { %"class.std::__uniq_ptr_impl" }
%"class.std::__uniq_ptr_impl" = type { %"class.std::tuple" }
%"class.std::tuple" = type { %"struct.std::_Tuple_impl" }
%"struct.std::_Tuple_impl" = type { %"struct.std::_Head_base.61" }
%"struct.std::_Head_base.61" = type { ptr }
%"class.std::vector.5" = type { %"struct.std::_Vector_base.6" }
%"struct.std::_Vector_base.6" = type { %"struct.std::_Vector_base<int, std::allocator<int>>::_Vector_impl" }
%"struct.std::_Vector_base<int, std::allocator<int>>::_Vector_impl" = type { %"struct.std::_Vector_base<int, std::allocator<int>>::_Vector_impl_data" }
%"struct.std::_Vector_base<int, std::allocator<int>>::_Vector_impl_data" = type { ptr, ptr, ptr }
%"class.std::map" = type { %"class.std::_Rb_tree" }
%"class.std::_Rb_tree" = type { %"struct.std::_Rb_tree<int, std::pair<const int, std::vector<float>>, std::_Select1st<std::pair<const int, std::vector<float>>>, std::less<int>>::_Rb_tree_impl" }
%"struct.std::_Rb_tree<int, std::pair<const int, std::vector<float>>, std::_Select1st<std::pair<const int, std::vector<float>>>, std::less<int>>::_Rb_tree_impl" = type { [8 x i8], %"struct.std::_Rb_tree_header" }
%"struct.std::_Rb_tree_header" = type { %"struct.std::_Rb_tree_node_base", i64 }
%"struct.std::_Rb_tree_node_base" = type { i32, ptr, ptr, ptr }
%"class.std::vector.10" = type { %"struct.std::_Vector_base.11" }
%"struct.std::_Vector_base.11" = type { %"struct.std::_Vector_base<float, std::allocator<float>>::_Vector_impl" }
%"struct.std::_Vector_base<float, std::allocator<float>>::_Vector_impl" = type { %"struct.std::_Vector_base<float, std::allocator<float>>::_Vector_impl_data" }
%"struct.std::_Vector_base<float, std::allocator<float>>::_Vector_impl_data" = type { ptr, ptr, ptr }
%"class.std::vector.65" = type { %"struct.std::_Vector_base.66" }
%"struct.std::_Vector_base.66" = type { %"struct.std::_Vector_base<std::set<int>, std::allocator<std::set<int>>>::_Vector_impl" }
%"struct.std::_Vector_base<std::set<int>, std::allocator<std::set<int>>>::_Vector_impl" = type { %"struct.std::_Vector_base<std::set<int>, std::allocator<std::set<int>>>::_Vector_impl_data" }
%"struct.std::_Vector_base<std::set<int>, std::allocator<std::set<int>>>::_Vector_impl_data" = type { ptr, ptr, ptr }
%"class.std::vector.70" = type { %"struct.std::_Vector_base.71" }
%"struct.std::_Vector_base.71" = type { %"struct.std::_Vector_base<unsigned char, std::allocator<unsigned char>>::_Vector_impl" }
%"struct.std::_Vector_base<unsigned char, std::allocator<unsigned char>>::_Vector_impl" = type { %"struct.std::_Vector_base<unsigned char, std::allocator<unsigned char>>::_Vector_impl_data" }
%"struct.std::_Vector_base<unsigned char, std::allocator<unsigned char>>::_Vector_impl_data" = type { ptr, ptr, ptr }
%"class.std::unique_ptr.75" = type { %"struct.std::__uniq_ptr_data.76" }
%"struct.std::__uniq_ptr_data.76" = type { %"class.std::__uniq_ptr_impl.77" }
%"class.std::__uniq_ptr_impl.77" = type { %"class.std::tuple.78" }
%"class.std::tuple.78" = type { %"struct.std::_Tuple_impl.79" }
%"struct.std::_Tuple_impl.79" = type { %"struct.std::_Head_base.82" }
%"struct.std::_Head_base.82" = type { ptr }

; Function Attrs: mustprogress nounwind uwtable
define linkonce_odr noundef nonnull align 8 dereferenceable(8) ptr @_ZNSt10_Head_baseILm0EP18ggml_backend_schedLb0EE7_M_headERKS2_(ptr noundef nonnull align 8 dereferenceable(8) %0) #0 comdat align 2 {
  %2 = alloca ptr, align 8
  store ptr %0, ptr %2, align 8, !tbaa !454
  %3 = load ptr, ptr %2, align 8, !tbaa !454
  %4 = getelementptr inbounds nuw %"struct.std::_Head_base.82", ptr %3, i32 0, i32 0
  ret ptr %4
}

; Function Attrs: mustprogress nounwind uwtable
define linkonce_odr noundef nonnull align 8 dereferenceable(8) ptr @_ZNSt11_Tuple_implILm0EJP18ggml_backend_sched26ggml_backend_sched_deleterEE7_M_headERKS3_(ptr noundef nonnull align 8 dereferenceable(8) %0) #0 comdat align 2 {
  %2 = alloca ptr, align 8
  store ptr %0, ptr %2, align 8, !tbaa !452
  %3 = load ptr, ptr %2, align 8, !tbaa !452
  %4 = call noundef nonnull align 8 dereferenceable(8) ptr @_ZNSt10_Head_baseILm0EP18ggml_backend_schedLb0EE7_M_headERKS2_(ptr noundef nonnull align 8 dereferenceable(8) %3) #19
  ret ptr %4
}

; Function Attrs: mustprogress nounwind uwtable
define linkonce_odr noundef nonnull align 8 dereferenceable(8) ptr @_ZSt12__get_helperILm0EP18ggml_backend_schedJ26ggml_backend_sched_deleterEERKT0_RKSt11_Tuple_implIXT_EJS3_DpT1_EE(ptr noundef nonnull align 8 dereferenceable(8) %0) #0 comdat {
  %2 = alloca ptr, align 8
  store ptr %0, ptr %2, align 8, !tbaa !452
  %3 = load ptr, ptr %2, align 8, !tbaa !452
  %4 = call noundef nonnull align 8 dereferenceable(8) ptr @_ZNSt11_Tuple_implILm0EJP18ggml_backend_sched26ggml_backend_sched_deleterEE7_M_headERKS3_(ptr noundef nonnull align 8 dereferenceable(8) %3) #19
  ret ptr %4
}

; Function Attrs: mustprogress nounwind uwtable
define linkonce_odr noundef nonnull align 8 dereferenceable(8) ptr @_ZSt3getILm0EJP18ggml_backend_sched26ggml_backend_sched_deleterEERKNSt13tuple_elementIXT_ESt5tupleIJDpT0_EEE4typeERKS7_(ptr noundef nonnull align 8 dereferenceable(8) %0) #0 comdat {
  %2 = alloca ptr, align 8
  store ptr %0, ptr %2, align 8, !tbaa !450
  %3 = load ptr, ptr %2, align 8, !tbaa !450
  %4 = call noundef nonnull align 8 dereferenceable(8) ptr @_ZSt12__get_helperILm0EP18ggml_backend_schedJ26ggml_backend_sched_deleterEERKT0_RKSt11_Tuple_implIXT_EJS3_DpT1_EE(ptr noundef nonnull align 8 dereferenceable(8) %3) #19
  ret ptr %4
}

; Function Attrs: mustprogress nounwind uwtable
define linkonce_odr noundef ptr @_ZNKSt15__uniq_ptr_implI18ggml_backend_sched26ggml_backend_sched_deleterE6_M_ptrEv(ptr noundef nonnull align 8 dereferenceable(8) %0) #0 comdat align 2 {
  %2 = alloca ptr, align 8
  store ptr %0, ptr %2, align 8, !tbaa !446
  %3 = load ptr, ptr %2, align 8
  %4 = getelementptr inbounds nuw %"class.std::__uniq_ptr_impl.77", ptr %3, i32 0, i32 0
  %5 = call noundef nonnull align 8 dereferenceable(8) ptr @_ZSt3getILm0EJP18ggml_backend_sched26ggml_backend_sched_deleterEERKNSt13tuple_elementIXT_ESt5tupleIJDpT0_EEE4typeERKS7_(ptr noundef nonnull align 8 dereferenceable(8) %4) #19
  %6 = load ptr, ptr %5, align 8, !tbaa !426
  ret ptr %6
}

; Function Attrs: mustprogress nounwind uwtable
define linkonce_odr noundef ptr @_ZNKSt10unique_ptrI18ggml_backend_sched26ggml_backend_sched_deleterE3getEv(ptr noundef nonnull align 8 dereferenceable(8) %0) #0 comdat align 2 {
  %2 = alloca ptr, align 8
  store ptr %0, ptr %2, align 8, !tbaa !371
  %3 = load ptr, ptr %2, align 8
  %4 = getelementptr inbounds nuw %"class.std::unique_ptr.75", ptr %3, i32 0, i32 0
  %5 = call noundef ptr @_ZNKSt15__uniq_ptr_implI18ggml_backend_sched26ggml_backend_sched_deleterE6_M_ptrEv(ptr noundef nonnull align 8 dereferenceable(8) %4) #19
  ret ptr %5
}

; Function Attrs: mustprogress uwtable
define void @llama_synchronize(ptr noundef %0) #2 {
  %2 = alloca ptr, align 8
  store ptr %0, ptr %2, align 8, !tbaa !3
  %3 = load ptr, ptr %2, align 8, !tbaa !3
  %4 = getelementptr inbounds nuw %struct.llama_context, ptr %3, i32 0, i32 35
  %5 = call noundef ptr @_ZNKSt10unique_ptrI18ggml_backend_sched26ggml_backend_sched_deleterE3getEv(ptr noundef nonnull align 8 dereferenceable(8) %4) #19
  call void @ggml_backend_sched_synchronize(ptr noundef %5)
  %6 = load ptr, ptr %2, align 8, !tbaa !3
  %7 = getelementptr inbounds nuw %struct.llama_context, ptr %6, i32 0, i32 17
  %8 = load i64, ptr %7, align 8, !tbaa !361
  %9 = icmp eq i64 %8, 1
  br i1 %9, label %10, label %31

10:                                               ; preds = %1
  %11 = load ptr, ptr %2, align 8, !tbaa !3
  %12 = getelementptr inbounds nuw %struct.llama_context, ptr %11, i32 0, i32 1
  %13 = getelementptr inbounds nuw %struct.llama_cparams, ptr %12, i32 0, i32 18
  %14 = load i8, ptr %13, align 4, !tbaa !362, !range !171, !noundef !172
  %15 = trunc i8 %14 to i1
  br i1 %15, label %26, label %16

16:                                               ; preds = %10
  %17 = call i64 @ggml_time_us()
  %18 = load ptr, ptr %2, align 8, !tbaa !3
  %19 = getelementptr inbounds nuw %struct.llama_context, ptr %18, i32 0, i32 16
  %20 = load i64, ptr %19, align 8, !tbaa !363
  %21 = sub nsw i64 %17, %20
  %22 = load ptr, ptr %2, align 8, !tbaa !3
  %23 = getelementptr inbounds nuw %struct.llama_context, ptr %22, i32 0, i32 15
  %24 = load i64, ptr %23, align 8, !tbaa !364
  %25 = add nsw i64 %24, %21
  store i64 %25, ptr %23, align 8, !tbaa !364
  br label %26

26:                                               ; preds = %16, %10
  %27 = load ptr, ptr %2, align 8, !tbaa !3
  %28 = getelementptr inbounds nuw %struct.llama_context, ptr %27, i32 0, i32 19
  %29 = load i32, ptr %28, align 4, !tbaa !365
  %30 = add nsw i32 %29, 1
  store i32 %30, ptr %28, align 4, !tbaa !365
  br label %63

31:                                               ; preds = %1
  %32 = load ptr, ptr %2, align 8, !tbaa !3
  %33 = getelementptr inbounds nuw %struct.llama_context, ptr %32, i32 0, i32 17
  %34 = load i64, ptr %33, align 8, !tbaa !361
  %35 = icmp sgt i64 %34, 1
  br i1 %35, label %36, label %62

36:                                               ; preds = %31
  %37 = load ptr, ptr %2, align 8, !tbaa !3
  %38 = getelementptr inbounds nuw %struct.llama_context, ptr %37, i32 0, i32 1
  %39 = getelementptr inbounds nuw %struct.llama_cparams, ptr %38, i32 0, i32 18
  %40 = load i8, ptr %39, align 4, !tbaa !362, !range !171, !noundef !172
  %41 = trunc i8 %40 to i1
  br i1 %41, label %52, label %42

42:                                               ; preds = %36
  %43 = call i64 @ggml_time_us()
  %44 = load ptr, ptr %2, align 8, !tbaa !3
  %45 = getelementptr inbounds nuw %struct.llama_context, ptr %44, i32 0, i32 16
  %46 = load i64, ptr %45, align 8, !tbaa !363
  %47 = sub nsw i64 %43, %46
  %48 = load ptr, ptr %2, align 8, !tbaa !3
  %49 = getelementptr inbounds nuw %struct.llama_context, ptr %48, i32 0, i32 14
  %50 = load i64, ptr %49, align 8, !tbaa !366
  %51 = add nsw i64 %50, %47
  store i64 %51, ptr %49, align 8, !tbaa !366
  br label %52

52:                                               ; preds = %42, %36
  %53 = load ptr, ptr %2, align 8, !tbaa !3
  %54 = getelementptr inbounds nuw %struct.llama_context, ptr %53, i32 0, i32 17
  %55 = load i64, ptr %54, align 8, !tbaa !361
  %56 = load ptr, ptr %2, align 8, !tbaa !3
  %57 = getelementptr inbounds nuw %struct.llama_context, ptr %56, i32 0, i32 18
  %58 = load i32, ptr %57, align 8, !tbaa !367
  %59 = sext i32 %58 to i64
  %60 = add nsw i64 %59, %55
  %61 = trunc i64 %60 to i32
  store i32 %61, ptr %57, align 8, !tbaa !367
  br label %62

62:                                               ; preds = %52, %31
  br label %63

63:                                               ; preds = %62, %26
  %64 = load ptr, ptr %2, align 8, !tbaa !3
  %65 = getelementptr inbounds nuw %struct.llama_context, ptr %64, i32 0, i32 17
  %66 = load i64, ptr %65, align 8, !tbaa !361
  %67 = icmp sgt i64 %66, 0
  br i1 %67, label %68, label %83

68:                                               ; preds = %63
  %69 = load ptr, ptr %2, align 8, !tbaa !3
  %70 = getelementptr inbounds nuw %struct.llama_context, ptr %69, i32 0, i32 11
  %71 = load i8, ptr %70, align 8, !tbaa !368, !range !171, !noundef !172
  %72 = trunc i8 %71 to i1
  br i1 %72, label %83, label %73

73:                                               ; preds = %68
  %74 = call i64 @ggml_time_us()
  %75 = load ptr, ptr %2, align 8, !tbaa !3
  %76 = getelementptr inbounds nuw %struct.llama_context, ptr %75, i32 0, i32 12
  %77 = load i64, ptr %76, align 8, !tbaa !369
  %78 = sub nsw i64 %74, %77
  %79 = load ptr, ptr %2, align 8, !tbaa !3
  %80 = getelementptr inbounds nuw %struct.llama_context, ptr %79, i32 0, i32 13
  store i64 %78, ptr %80, align 8, !tbaa !370
  %81 = load ptr, ptr %2, align 8, !tbaa !3
  %82 = getelementptr inbounds nuw %struct.llama_context, ptr %81, i32 0, i32 11
  store i8 1, ptr %82, align 8, !tbaa !368
  br label %83

83:                                               ; preds = %73, %68, %63
  %84 = load ptr, ptr %2, align 8, !tbaa !3
  %85 = getelementptr inbounds nuw %struct.llama_context, ptr %84, i32 0, i32 17
  store i64 0, ptr %85, align 8, !tbaa !361
  %86 = load ptr, ptr %2, align 8, !tbaa !3
  %87 = getelementptr inbounds nuw %struct.llama_context, ptr %86, i32 0, i32 16
  store i64 0, ptr %87, align 8, !tbaa !363
  ret void
}