; Function Attrs: mustprogress uwtable
define void @llama_synchronize(ptr noundef captures(none) %0) local_unnamed_addr #2 {
  %2 = getelementptr inbounds nuw i8, ptr %0, i64 976
  %3 = load ptr, ptr %2, align 8, !tbaa !288
  tail call void @ggml_backend_sched_synchronize(ptr noundef %3)
  %4 = getelementptr inbounds nuw i8, ptr %0, i64 752
  %5 = load i64, ptr %4, align 8, !tbaa !323
  %6 = icmp eq i64 %5, 1
  br i1 %6, label %7, label %23

7:                                                ; preds = %1
  %8 = getelementptr inbounds nuw i8, ptr %0, i64 68
  %9 = load i8, ptr %8, align 4, !tbaa !324, !range !157, !noundef !158
  %10 = trunc nuw i8 %9 to i1
  br i1 %10, label %19, label %11

11:                                               ; preds = %7
  %12 = tail call i64 @ggml_time_us()
  %13 = getelementptr inbounds nuw i8, ptr %0, i64 744
  %14 = load i64, ptr %13, align 8, !tbaa !325
  %15 = sub i64 %12, %14
  %16 = getelementptr inbounds nuw i8, ptr %0, i64 736
  %17 = load i64, ptr %16, align 8, !tbaa !326
  %18 = add nsw i64 %15, %17
  store i64 %18, ptr %16, align 8, !tbaa !326
  %.pr.pre.pre = load i64, ptr %4, align 8, !tbaa !323
  br label %19

19:                                               ; preds = %11, %7
  %.pr.pre = phi i64 [ %.pr.pre.pre, %11 ], [ 1, %7 ]
  %20 = getelementptr inbounds nuw i8, ptr %0, i64 764
  %21 = load i32, ptr %20, align 4, !tbaa !327
  %22 = add nsw i32 %21, 1
  store i32 %22, ptr %20, align 4, !tbaa !327
  br label %43

23:                                               ; preds = %1
  %24 = icmp sgt i64 %5, 1
  br i1 %24, label %25, label %.thread

25:                                               ; preds = %23
  %26 = getelementptr inbounds nuw i8, ptr %0, i64 68
  %27 = load i8, ptr %26, align 4, !tbaa !324, !range !157, !noundef !158
  %28 = trunc nuw i8 %27 to i1
  br i1 %28, label %37, label %29

29:                                               ; preds = %25
  %30 = tail call i64 @ggml_time_us()
  %31 = getelementptr inbounds nuw i8, ptr %0, i64 744
  %32 = load i64, ptr %31, align 8, !tbaa !325
  %33 = sub i64 %30, %32
  %34 = getelementptr inbounds nuw i8, ptr %0, i64 728
  %35 = load i64, ptr %34, align 8, !tbaa !328
  %36 = add nsw i64 %33, %35
  store i64 %36, ptr %34, align 8, !tbaa !328
  %.pre = load i64, ptr %4, align 8, !tbaa !323
  br label %37

37:                                               ; preds = %29, %25
  %38 = phi i64 [ %.pre, %29 ], [ %5, %25 ]
  %39 = getelementptr inbounds nuw i8, ptr %0, i64 760
  %40 = load i32, ptr %39, align 8, !tbaa !329
  %41 = trunc i64 %38 to i32
  %42 = add i32 %40, %41
  store i32 %42, ptr %39, align 8, !tbaa !329
  br label %43

43:                                               ; preds = %37, %19
  %.pr = phi i64 [ %38, %37 ], [ %.pr.pre, %19 ]
  %44 = icmp sgt i64 %.pr, 0
  br i1 %44, label %45, label %.thread

45:                                               ; preds = %43
  %46 = getelementptr inbounds nuw i8, ptr %0, i64 704
  %47 = load i8, ptr %46, align 8, !tbaa !330, !range !157, !noundef !158
  %48 = trunc nuw i8 %47 to i1
  br i1 %48, label %.thread, label %49

49:                                               ; preds = %45
  %50 = tail call i64 @ggml_time_us()
  %51 = getelementptr inbounds nuw i8, ptr %0, i64 712
  %52 = load i64, ptr %51, align 8, !tbaa !331
  %53 = sub nsw i64 %50, %52
  %54 = getelementptr inbounds nuw i8, ptr %0, i64 720
  store i64 %53, ptr %54, align 8, !tbaa !332
  store i8 1, ptr %46, align 8, !tbaa !330
  br label %.thread

.thread:                                          ; preds = %23, %49, %45, %43
  %55 = getelementptr inbounds nuw i8, ptr %0, i64 744
  tail call void @llvm.memset.p0.i64(ptr noundef nonnull align 8 dereferenceable(16) %55, i8 0, i64 16, i1 false)
  ret void
}